; Function Attrs: mustprogress nounwind uwtable
define hidden noundef zeroext i8 @_ZNK12ConstantPool27basic_type_for_signature_atEi(ptr nocapture noundef nonnull readonly align 8 dereferenceable(68) %0, i32 noundef %1) local_unnamed_addr #0 align 2 {
  %3 = getelementptr inbounds i8, ptr %0, i64 72
  %4 = sext i32 %1 to i64
  %5 = getelementptr inbounds i64, ptr %3, i64 %4
  %6 = load ptr, ptr %5, align 8
  %7 = getelementptr inbounds i8, ptr %6, i64 6
  %8 = load i8, ptr %7, align 1
  %9 = sext i8 %8 to i32
  %10 = tail call noundef zeroext i8 @_ZN9Signature10basic_typeEi(i32 noundef %9) #17
  ret i8 %10
}